
Attiny2313_Sonar.elf:     file format elf32-avr

Sections:
Idx Name          Size      VMA       LMA       File off  Algn
  0 .text         00000982  00000000  00000000  00000094  2**1
                  CONTENTS, ALLOC, LOAD, READONLY, CODE
  1 .data         0000004e  00800060  00000982  00000a16  2**0
                  CONTENTS, ALLOC, LOAD, DATA
  2 .bss          00000002  008000ae  008000ae  00000a64  2**0
                  ALLOC
  3 .comment      00000030  00000000  00000000  00000a64  2**0
                  CONTENTS, READONLY
  4 .note.gnu.avr.deviceinfo 0000003c  00000000  00000000  00000a94  2**2
                  CONTENTS, READONLY
  5 .debug_aranges 000000e0  00000000  00000000  00000ad0  2**0
                  CONTENTS, READONLY, DEBUGGING
  6 .debug_info   0000220e  00000000  00000000  00000bb0  2**0
                  CONTENTS, READONLY, DEBUGGING
  7 .debug_abbrev 0000096c  00000000  00000000  00002dbe  2**0
                  CONTENTS, READONLY, DEBUGGING
  8 .debug_line   00000ba6  00000000  00000000  0000372a  2**0
                  CONTENTS, READONLY, DEBUGGING
  9 .debug_frame  00000314  00000000  00000000  000042d0  2**2
                  CONTENTS, READONLY, DEBUGGING
 10 .debug_str    00000771  00000000  00000000  000045e4  2**0
                  CONTENTS, READONLY, DEBUGGING
 11 .debug_loc    00001142  00000000  00000000  00004d55  2**0
                  CONTENTS, READONLY, DEBUGGING
 12 .debug_ranges 000000d0  00000000  00000000  00005e97  2**0
                  CONTENTS, READONLY, DEBUGGING

Disassembly of section .text:

00000000 <__vectors>:
   0:	0c 94 2b 00 	jmp	0x56	; 0x56 <__ctors_end>
   4:	0c 94 53 00 	jmp	0xa6	; 0xa6 <__bad_interrupt>
   8:	0c 94 53 00 	jmp	0xa6	; 0xa6 <__bad_interrupt>
   c:	0c 94 53 00 	jmp	0xa6	; 0xa6 <__bad_interrupt>
  10:	0c 94 53 00 	jmp	0xa6	; 0xa6 <__bad_interrupt>
  14:	0c 94 53 00 	jmp	0xa6	; 0xa6 <__bad_interrupt>
  18:	0c 94 53 00 	jmp	0xa6	; 0xa6 <__bad_interrupt>
  1c:	0c 94 53 00 	jmp	0xa6	; 0xa6 <__bad_interrupt>
  20:	0c 94 53 00 	jmp	0xa6	; 0xa6 <__bad_interrupt>
  24:	0c 94 53 00 	jmp	0xa6	; 0xa6 <__bad_interrupt>
  28:	0c 94 53 00 	jmp	0xa6	; 0xa6 <__bad_interrupt>
  2c:	0c 94 53 00 	jmp	0xa6	; 0xa6 <__bad_interrupt>
  30:	0c 94 53 00 	jmp	0xa6	; 0xa6 <__bad_interrupt>
  34:	0c 94 53 00 	jmp	0xa6	; 0xa6 <__bad_interrupt>
  38:	0c 94 53 00 	jmp	0xa6	; 0xa6 <__bad_interrupt>
  3c:	0c 94 53 00 	jmp	0xa6	; 0xa6 <__bad_interrupt>
  40:	0c 94 53 00 	jmp	0xa6	; 0xa6 <__bad_interrupt>
  44:	0c 94 53 00 	jmp	0xa6	; 0xa6 <__bad_interrupt>
  48:	0c 94 53 00 	jmp	0xa6	; 0xa6 <__bad_interrupt>
  4c:	0c 94 53 00 	jmp	0xa6	; 0xa6 <__bad_interrupt>
  50:	0c 94 53 00 	jmp	0xa6	; 0xa6 <__bad_interrupt>

00000054 <__ctors_start>:
  54:	79 03       	fmul	r23, r17

00000056 <__ctors_end>:
  56:	11 24       	eor	r1, r1
  58:	1f be       	out	0x3f, r1	; 63
  5a:	cf e5       	ldi	r28, 0x5F	; 95
  5c:	d4 e0       	ldi	r29, 0x04	; 4
  5e:	de bf       	out	0x3e, r29	; 62
  60:	cd bf       	out	0x3d, r28	; 61

00000062 <__do_copy_data>:
  62:	10 e0       	ldi	r17, 0x00	; 0
  64:	a0 e6       	ldi	r26, 0x60	; 96
  66:	b0 e0       	ldi	r27, 0x00	; 0
  68:	e2 e8       	ldi	r30, 0x82	; 130
  6a:	f9 e0       	ldi	r31, 0x09	; 9
  6c:	02 c0       	rjmp	.+4      	; 0x72 <__do_copy_data+0x10>
  6e:	05 90       	lpm	r0, Z+
  70:	0d 92       	st	X+, r0
  72:	ae 3a       	cpi	r26, 0xAE	; 174
  74:	b1 07       	cpc	r27, r17
  76:	d9 f7       	brne	.-10     	; 0x6e <__do_copy_data+0xc>

00000078 <__do_clear_bss>:
  78:	20 e0       	ldi	r18, 0x00	; 0
  7a:	ae ea       	ldi	r26, 0xAE	; 174
  7c:	b0 e0       	ldi	r27, 0x00	; 0
  7e:	01 c0       	rjmp	.+2      	; 0x82 <.do_clear_bss_start>

00000080 <.do_clear_bss_loop>:
  80:	1d 92       	st	X+, r1

00000082 <.do_clear_bss_start>:
  82:	a0 3b       	cpi	r26, 0xB0	; 176
  84:	b2 07       	cpc	r27, r18
  86:	e1 f7       	brne	.-8      	; 0x80 <.do_clear_bss_loop>

00000088 <__do_global_ctors>:
  88:	10 e0       	ldi	r17, 0x00	; 0
  8a:	cb e2       	ldi	r28, 0x2B	; 43
  8c:	d0 e0       	ldi	r29, 0x00	; 0
  8e:	04 c0       	rjmp	.+8      	; 0x98 <__do_global_ctors+0x10>
  90:	21 97       	sbiw	r28, 0x01	; 1
  92:	fe 01       	movw	r30, r28
  94:	0e 94 b9 04 	call	0x972	; 0x972 <__tablejump2__>
  98:	ca 32       	cpi	r28, 0x2A	; 42
  9a:	d1 07       	cpc	r29, r17
  9c:	c9 f7       	brne	.-14     	; 0x90 <__do_global_ctors+0x8>
  9e:	0e 94 b6 02 	call	0x56c	; 0x56c <main>
  a2:	0c 94 bf 04 	jmp	0x97e	; 0x97e <_exit>

000000a6 <__bad_interrupt>:
  a6:	0c 94 00 00 	jmp	0	; 0x0 <__vectors>

000000aa <_ZN3lcd11Lcd_RawSendEcc>:
   		
	  string [0] = hexCode [ (( Number >> 4) &  0x0F ) ];
	  string [1] = hexCode [ ( Number & 0x0F) ];
	  writeText(row, column, string);
	  
}
  aa:	44 23       	and	r20, r20
  ac:	11 f0       	breq	.+4      	; 0xb2 <_ZN3lcd11Lcd_RawSendEcc+0x8>
  ae:	df 9a       	sbi	0x1b, 7	; 27
  b0:	01 c0       	rjmp	.+2      	; 0xb4 <_ZN3lcd11Lcd_RawSendEcc+0xa>
  b2:	df 98       	cbi	0x1b, 7	; 27
  b4:	86 2f       	mov	r24, r22
  b6:	82 95       	swap	r24
  b8:	8f 70       	andi	r24, 0x0F	; 15
  ba:	80 ff       	sbrs	r24, 0
  bc:	02 c0       	rjmp	.+4      	; 0xc2 <_ZN3lcd11Lcd_RawSendEcc+0x18>
  be:	d8 9a       	sbi	0x1b, 0	; 27
  c0:	01 c0       	rjmp	.+2      	; 0xc4 <_ZN3lcd11Lcd_RawSendEcc+0x1a>
  c2:	d8 98       	cbi	0x1b, 0	; 27
  c4:	81 ff       	sbrs	r24, 1
  c6:	02 c0       	rjmp	.+4      	; 0xcc <_ZN3lcd11Lcd_RawSendEcc+0x22>
  c8:	d9 9a       	sbi	0x1b, 1	; 27
  ca:	01 c0       	rjmp	.+2      	; 0xce <_ZN3lcd11Lcd_RawSendEcc+0x24>
  cc:	d9 98       	cbi	0x1b, 1	; 27
  ce:	82 ff       	sbrs	r24, 2
  d0:	02 c0       	rjmp	.+4      	; 0xd6 <_ZN3lcd11Lcd_RawSendEcc+0x2c>
  d2:	da 9a       	sbi	0x1b, 2	; 27
  d4:	01 c0       	rjmp	.+2      	; 0xd8 <_ZN3lcd11Lcd_RawSendEcc+0x2e>
  d6:	da 98       	cbi	0x1b, 2	; 27
  d8:	88 70       	andi	r24, 0x08	; 8
  da:	11 f0       	breq	.+4      	; 0xe0 <_ZN3lcd11Lcd_RawSendEcc+0x36>
  dc:	db 9a       	sbi	0x1b, 3	; 27
  de:	01 c0       	rjmp	.+2      	; 0xe2 <_ZN3lcd11Lcd_RawSendEcc+0x38>
  e0:	db 98       	cbi	0x1b, 3	; 27
  e2:	dd 98       	cbi	0x1b, 5	; 27
  e4:	82 e0       	ldi	r24, 0x02	; 2
  e6:	8a 95       	dec	r24
  e8:	f1 f7       	brne	.-4      	; 0xe6 <_ZN3lcd11Lcd_RawSendEcc+0x3c>
  ea:	00 c0       	rjmp	.+0      	; 0xec <_ZN3lcd11Lcd_RawSendEcc+0x42>
  ec:	dd 9a       	sbi	0x1b, 5	; 27
  ee:	92 e0       	ldi	r25, 0x02	; 2
  f0:	9a 95       	dec	r25
  f2:	f1 f7       	brne	.-4      	; 0xf0 <_ZN3lcd11Lcd_RawSendEcc+0x46>
  f4:	00 c0       	rjmp	.+0      	; 0xf6 <_ZN3lcd11Lcd_RawSendEcc+0x4c>
  f6:	dd 98       	cbi	0x1b, 5	; 27
  f8:	87 ec       	ldi	r24, 0xC7	; 199
  fa:	90 e0       	ldi	r25, 0x00	; 0
  fc:	01 97       	sbiw	r24, 0x01	; 1
  fe:	f1 f7       	brne	.-4      	; 0xfc <_ZN3lcd11Lcd_RawSendEcc+0x52>
 100:	00 c0       	rjmp	.+0      	; 0x102 <_ZN3lcd11Lcd_RawSendEcc+0x58>
 102:	00 00       	nop
 104:	44 23       	and	r20, r20
 106:	11 f0       	breq	.+4      	; 0x10c <_ZN3lcd11Lcd_RawSendEcc+0x62>
 108:	df 9a       	sbi	0x1b, 7	; 27
 10a:	01 c0       	rjmp	.+2      	; 0x10e <_ZN3lcd11Lcd_RawSendEcc+0x64>
 10c:	df 98       	cbi	0x1b, 7	; 27
 10e:	60 ff       	sbrs	r22, 0
 110:	02 c0       	rjmp	.+4      	; 0x116 <_ZN3lcd11Lcd_RawSendEcc+0x6c>
 112:	d8 9a       	sbi	0x1b, 0	; 27
 114:	01 c0       	rjmp	.+2      	; 0x118 <_ZN3lcd11Lcd_RawSendEcc+0x6e>
 116:	d8 98       	cbi	0x1b, 0	; 27
 118:	61 ff       	sbrs	r22, 1
 11a:	02 c0       	rjmp	.+4      	; 0x120 <_ZN3lcd11Lcd_RawSendEcc+0x76>
 11c:	d9 9a       	sbi	0x1b, 1	; 27
 11e:	01 c0       	rjmp	.+2      	; 0x122 <_ZN3lcd11Lcd_RawSendEcc+0x78>
 120:	d9 98       	cbi	0x1b, 1	; 27
 122:	62 ff       	sbrs	r22, 2
 124:	02 c0       	rjmp	.+4      	; 0x12a <_ZN3lcd11Lcd_RawSendEcc+0x80>
 126:	da 9a       	sbi	0x1b, 2	; 27
 128:	01 c0       	rjmp	.+2      	; 0x12c <_ZN3lcd11Lcd_RawSendEcc+0x82>
 12a:	da 98       	cbi	0x1b, 2	; 27
 12c:	63 ff       	sbrs	r22, 3
 12e:	02 c0       	rjmp	.+4      	; 0x134 <_ZN3lcd11Lcd_RawSendEcc+0x8a>
 130:	db 9a       	sbi	0x1b, 3	; 27
 132:	01 c0       	rjmp	.+2      	; 0x136 <_ZN3lcd11Lcd_RawSendEcc+0x8c>
 134:	db 98       	cbi	0x1b, 3	; 27
 136:	dd 98       	cbi	0x1b, 5	; 27
 138:	92 e0       	ldi	r25, 0x02	; 2
 13a:	9a 95       	dec	r25
 13c:	f1 f7       	brne	.-4      	; 0x13a <_ZN3lcd11Lcd_RawSendEcc+0x90>
 13e:	00 c0       	rjmp	.+0      	; 0x140 <_ZN3lcd11Lcd_RawSendEcc+0x96>
 140:	dd 9a       	sbi	0x1b, 5	; 27
 142:	82 e0       	ldi	r24, 0x02	; 2
 144:	8a 95       	dec	r24
 146:	f1 f7       	brne	.-4      	; 0x144 <_ZN3lcd11Lcd_RawSendEcc+0x9a>
 148:	00 c0       	rjmp	.+0      	; 0x14a <_ZN3lcd11Lcd_RawSendEcc+0xa0>
 14a:	dd 98       	cbi	0x1b, 5	; 27
 14c:	87 ec       	ldi	r24, 0xC7	; 199
 14e:	90 e0       	ldi	r25, 0x00	; 0
 150:	01 97       	sbiw	r24, 0x01	; 1
 152:	f1 f7       	brne	.-4      	; 0x150 <_ZN3lcd11Lcd_RawSendEcc+0xa6>
 154:	00 c0       	rjmp	.+0      	; 0x156 <_ZN3lcd11Lcd_RawSendEcc+0xac>
 156:	00 00       	nop
 158:	08 95       	ret

0000015a <_ZN3lcd4initEv>:
 15a:	cf 93       	push	r28
 15c:	df 93       	push	r29
 15e:	ec 01       	movw	r28, r24
 160:	88 81       	ld	r24, Y
 162:	9f ef       	ldi	r25, 0xFF	; 255
 164:	98 0f       	add	r25, r24
 166:	92 30       	cpi	r25, 0x02	; 2
 168:	38 f0       	brcs	.+14     	; 0x178 <_ZN3lcd4initEv+0x1e>
 16a:	84 30       	cpi	r24, 0x04	; 4
 16c:	29 f0       	breq	.+10     	; 0x178 <_ZN3lcd4initEv+0x1e>
 16e:	82 e0       	ldi	r24, 0x02	; 2
 170:	88 83       	st	Y, r24
 172:	80 e1       	ldi	r24, 0x10	; 16
 174:	89 83       	std	Y+1, r24	; 0x01
 176:	08 c0       	rjmp	.+16     	; 0x188 <_ZN3lcd4initEv+0x2e>
 178:	89 81       	ldd	r24, Y+1	; 0x01
 17a:	8b 7f       	andi	r24, 0xFB	; 251
 17c:	80 31       	cpi	r24, 0x10	; 16
 17e:	21 f0       	breq	.+8      	; 0x188 <_ZN3lcd4initEv+0x2e>
 180:	82 e0       	ldi	r24, 0x02	; 2
 182:	88 83       	st	Y, r24
 184:	80 e1       	ldi	r24, 0x10	; 16
 186:	89 83       	std	Y+1, r24	; 0x01
 188:	d5 9a       	sbi	0x1a, 5	; 26
 18a:	d7 9a       	sbi	0x1a, 7	; 26
 18c:	d0 9a       	sbi	0x1a, 0	; 26
 18e:	d1 9a       	sbi	0x1a, 1	; 26
 190:	d2 9a       	sbi	0x1a, 2	; 26
 192:	d3 9a       	sbi	0x1a, 3	; 26
 194:	8f eb       	ldi	r24, 0xBF	; 191
 196:	9d e5       	ldi	r25, 0x5D	; 93
 198:	01 97       	sbiw	r24, 0x01	; 1
 19a:	f1 f7       	brne	.-4      	; 0x198 <_ZN3lcd4initEv+0x3e>
 19c:	00 c0       	rjmp	.+0      	; 0x19e <_ZN3lcd4initEv+0x44>
 19e:	00 00       	nop
 1a0:	40 e0       	ldi	r20, 0x00	; 0
 1a2:	63 e3       	ldi	r22, 0x33	; 51
 1a4:	ce 01       	movw	r24, r28
 1a6:	0e 94 55 00 	call	0xaa	; 0xaa <_ZN3lcd11Lcd_RawSendEcc>
 1aa:	8f e9       	ldi	r24, 0x9F	; 159
 1ac:	9f e0       	ldi	r25, 0x0F	; 15
 1ae:	01 97       	sbiw	r24, 0x01	; 1
 1b0:	f1 f7       	brne	.-4      	; 0x1ae <_ZN3lcd4initEv+0x54>
 1b2:	00 c0       	rjmp	.+0      	; 0x1b4 <_ZN3lcd4initEv+0x5a>
 1b4:	00 00       	nop
 1b6:	40 e0       	ldi	r20, 0x00	; 0
 1b8:	63 e3       	ldi	r22, 0x33	; 51
 1ba:	ce 01       	movw	r24, r28
 1bc:	0e 94 55 00 	call	0xaa	; 0xaa <_ZN3lcd11Lcd_RawSendEcc>
 1c0:	8f e9       	ldi	r24, 0x9F	; 159
 1c2:	9f e0       	ldi	r25, 0x0F	; 15
 1c4:	01 97       	sbiw	r24, 0x01	; 1
 1c6:	f1 f7       	brne	.-4      	; 0x1c4 <_ZN3lcd4initEv+0x6a>
 1c8:	00 c0       	rjmp	.+0      	; 0x1ca <_ZN3lcd4initEv+0x70>
 1ca:	00 00       	nop
 1cc:	40 e0       	ldi	r20, 0x00	; 0
 1ce:	63 e3       	ldi	r22, 0x33	; 51
 1d0:	ce 01       	movw	r24, r28
 1d2:	0e 94 55 00 	call	0xaa	; 0xaa <_ZN3lcd11Lcd_RawSendEcc>
 1d6:	8f e9       	ldi	r24, 0x9F	; 159
 1d8:	9f e0       	ldi	r25, 0x0F	; 15
 1da:	01 97       	sbiw	r24, 0x01	; 1
 1dc:	f1 f7       	brne	.-4      	; 0x1da <_ZN3lcd4initEv+0x80>
 1de:	00 c0       	rjmp	.+0      	; 0x1e0 <_ZN3lcd4initEv+0x86>
 1e0:	00 00       	nop
 1e2:	40 e0       	ldi	r20, 0x00	; 0
 1e4:	62 e3       	ldi	r22, 0x32	; 50
 1e6:	ce 01       	movw	r24, r28
 1e8:	0e 94 55 00 	call	0xaa	; 0xaa <_ZN3lcd11Lcd_RawSendEcc>
 1ec:	8f e9       	ldi	r24, 0x9F	; 159
 1ee:	9f e0       	ldi	r25, 0x0F	; 15
 1f0:	01 97       	sbiw	r24, 0x01	; 1
 1f2:	f1 f7       	brne	.-4      	; 0x1f0 <_ZN3lcd4initEv+0x96>
 1f4:	00 c0       	rjmp	.+0      	; 0x1f6 <_ZN3lcd4initEv+0x9c>
 1f6:	00 00       	nop
 1f8:	40 e0       	ldi	r20, 0x00	; 0
 1fa:	68 e2       	ldi	r22, 0x28	; 40
 1fc:	ce 01       	movw	r24, r28
 1fe:	0e 94 55 00 	call	0xaa	; 0xaa <_ZN3lcd11Lcd_RawSendEcc>
 202:	8f e9       	ldi	r24, 0x9F	; 159
 204:	9f e0       	ldi	r25, 0x0F	; 15
 206:	01 97       	sbiw	r24, 0x01	; 1
 208:	f1 f7       	brne	.-4      	; 0x206 <_ZN3lcd4initEv+0xac>
 20a:	00 c0       	rjmp	.+0      	; 0x20c <_ZN3lcd4initEv+0xb2>
 20c:	00 00       	nop
 20e:	40 e0       	ldi	r20, 0x00	; 0
 210:	66 e0       	ldi	r22, 0x06	; 6
 212:	ce 01       	movw	r24, r28
 214:	0e 94 55 00 	call	0xaa	; 0xaa <_ZN3lcd11Lcd_RawSendEcc>
 218:	8f e9       	ldi	r24, 0x9F	; 159
 21a:	9f e0       	ldi	r25, 0x0F	; 15
 21c:	01 97       	sbiw	r24, 0x01	; 1
 21e:	f1 f7       	brne	.-4      	; 0x21c <_ZN3lcd4initEv+0xc2>
 220:	00 c0       	rjmp	.+0      	; 0x222 <_ZN3lcd4initEv+0xc8>
 222:	00 00       	nop
 224:	40 e0       	ldi	r20, 0x00	; 0
 226:	6c e0       	ldi	r22, 0x0C	; 12
 228:	ce 01       	movw	r24, r28
 22a:	0e 94 55 00 	call	0xaa	; 0xaa <_ZN3lcd11Lcd_RawSendEcc>
 22e:	8f e9       	ldi	r24, 0x9F	; 159
 230:	9f e0       	ldi	r25, 0x0F	; 15
 232:	01 97       	sbiw	r24, 0x01	; 1
 234:	f1 f7       	brne	.-4      	; 0x232 <_ZN3lcd4initEv+0xd8>
 236:	00 c0       	rjmp	.+0      	; 0x238 <_ZN3lcd4initEv+0xde>
 238:	00 00       	nop
 23a:	40 e0       	ldi	r20, 0x00	; 0
 23c:	61 e0       	ldi	r22, 0x01	; 1
 23e:	ce 01       	movw	r24, r28
 240:	0e 94 55 00 	call	0xaa	; 0xaa <_ZN3lcd11Lcd_RawSendEcc>
 244:	8f e9       	ldi	r24, 0x9F	; 159
 246:	9f e0       	ldi	r25, 0x0F	; 15
 248:	01 97       	sbiw	r24, 0x01	; 1
 24a:	f1 f7       	brne	.-4      	; 0x248 <_ZN3lcd4initEv+0xee>
 24c:	00 c0       	rjmp	.+0      	; 0x24e <_ZN3lcd4initEv+0xf4>
 24e:	00 00       	nop
 250:	40 e0       	ldi	r20, 0x00	; 0
 252:	62 e0       	ldi	r22, 0x02	; 2
 254:	ce 01       	movw	r24, r28
 256:	0e 94 55 00 	call	0xaa	; 0xaa <_ZN3lcd11Lcd_RawSendEcc>
 25a:	8f e9       	ldi	r24, 0x9F	; 159
 25c:	9f e0       	ldi	r25, 0x0F	; 15
 25e:	01 97       	sbiw	r24, 0x01	; 1
 260:	f1 f7       	brne	.-4      	; 0x25e <_ZN3lcd4initEv+0x104>
 262:	00 c0       	rjmp	.+0      	; 0x264 <_ZN3lcd4initEv+0x10a>
 264:	00 00       	nop
 266:	df 91       	pop	r29
 268:	cf 91       	pop	r28
 26a:	08 95       	ret

0000026c <_ZN3lcd5clearEv>:
 26c:	cf 93       	push	r28
 26e:	df 93       	push	r29
 270:	ec 01       	movw	r28, r24
 272:	40 e0       	ldi	r20, 0x00	; 0
 274:	61 e0       	ldi	r22, 0x01	; 1
 276:	0e 94 55 00 	call	0xaa	; 0xaa <_ZN3lcd11Lcd_RawSendEcc>
 27a:	8f e9       	ldi	r24, 0x9F	; 159
 27c:	9f e0       	ldi	r25, 0x0F	; 15
 27e:	01 97       	sbiw	r24, 0x01	; 1
 280:	f1 f7       	brne	.-4      	; 0x27e <_ZN3lcd5clearEv+0x12>
 282:	00 c0       	rjmp	.+0      	; 0x284 <_ZN3lcd5clearEv+0x18>
 284:	00 00       	nop
 286:	40 e0       	ldi	r20, 0x00	; 0
 288:	62 e0       	ldi	r22, 0x02	; 2
 28a:	ce 01       	movw	r24, r28
 28c:	0e 94 55 00 	call	0xaa	; 0xaa <_ZN3lcd11Lcd_RawSendEcc>
 290:	8f e9       	ldi	r24, 0x9F	; 159
 292:	9f e0       	ldi	r25, 0x0F	; 15
 294:	01 97       	sbiw	r24, 0x01	; 1
 296:	f1 f7       	brne	.-4      	; 0x294 <_ZN3lcd5clearEv+0x28>
 298:	00 c0       	rjmp	.+0      	; 0x29a <_ZN3lcd5clearEv+0x2e>
 29a:	00 00       	nop
 29c:	df 91       	pop	r29
 29e:	cf 91       	pop	r28
 2a0:	08 95       	ret

000002a2 <_ZN3lcd10Lcd_CursorEcc>:
 2a2:	fc 01       	movw	r30, r24
 2a4:	20 81       	ld	r18, Z
 2a6:	21 30       	cpi	r18, 0x01	; 1
 2a8:	a1 f0       	breq	.+40     	; 0x2d2 <_ZN3lcd10Lcd_CursorEcc+0x30>
 2aa:	22 30       	cpi	r18, 0x02	; 2
 2ac:	21 f4       	brne	.+8      	; 0x2b6 <_ZN3lcd10Lcd_CursorEcc+0x14>
 2ae:	66 23       	and	r22, r22
 2b0:	21 f1       	breq	.+72     	; 0x2fa <_ZN3lcd10Lcd_CursorEcc+0x58>
 2b2:	60 ec       	ldi	r22, 0xC0	; 192
 2b4:	17 c0       	rjmp	.+46     	; 0x2e4 <_ZN3lcd10Lcd_CursorEcc+0x42>
 2b6:	24 30       	cpi	r18, 0x04	; 4
 2b8:	a9 f4       	brne	.+42     	; 0x2e4 <_ZN3lcd10Lcd_CursorEcc+0x42>
 2ba:	fc 01       	movw	r30, r24
 2bc:	21 81       	ldd	r18, Z+1	; 0x01
 2be:	20 31       	cpi	r18, 0x10	; 16
 2c0:	51 f0       	breq	.+20     	; 0x2d6 <_ZN3lcd10Lcd_CursorEcc+0x34>
 2c2:	66 23       	and	r22, r22
 2c4:	51 f0       	breq	.+20     	; 0x2da <_ZN3lcd10Lcd_CursorEcc+0x38>
 2c6:	61 30       	cpi	r22, 0x01	; 1
 2c8:	51 f0       	breq	.+20     	; 0x2de <_ZN3lcd10Lcd_CursorEcc+0x3c>
 2ca:	62 30       	cpi	r22, 0x02	; 2
 2cc:	51 f0       	breq	.+20     	; 0x2e2 <_ZN3lcd10Lcd_CursorEcc+0x40>
 2ce:	64 ed       	ldi	r22, 0xD4	; 212
 2d0:	09 c0       	rjmp	.+18     	; 0x2e4 <_ZN3lcd10Lcd_CursorEcc+0x42>
 2d2:	60 e8       	ldi	r22, 0x80	; 128
 2d4:	07 c0       	rjmp	.+14     	; 0x2e4 <_ZN3lcd10Lcd_CursorEcc+0x42>
 2d6:	64 ed       	ldi	r22, 0xD4	; 212
 2d8:	05 c0       	rjmp	.+10     	; 0x2e4 <_ZN3lcd10Lcd_CursorEcc+0x42>
 2da:	60 e8       	ldi	r22, 0x80	; 128
 2dc:	03 c0       	rjmp	.+6      	; 0x2e4 <_ZN3lcd10Lcd_CursorEcc+0x42>
 2de:	60 ec       	ldi	r22, 0xC0	; 192
 2e0:	01 c0       	rjmp	.+2      	; 0x2e4 <_ZN3lcd10Lcd_CursorEcc+0x42>
 2e2:	64 e9       	ldi	r22, 0x94	; 148
 2e4:	64 0f       	add	r22, r20
 2e6:	40 e0       	ldi	r20, 0x00	; 0
 2e8:	0e 94 55 00 	call	0xaa	; 0xaa <_ZN3lcd11Lcd_RawSendEcc>
 2ec:	8f e9       	ldi	r24, 0x9F	; 159
 2ee:	9f e0       	ldi	r25, 0x0F	; 15
 2f0:	01 97       	sbiw	r24, 0x01	; 1
 2f2:	f1 f7       	brne	.-4      	; 0x2f0 <_ZN3lcd10Lcd_CursorEcc+0x4e>
 2f4:	00 c0       	rjmp	.+0      	; 0x2f6 <_ZN3lcd10Lcd_CursorEcc+0x54>
 2f6:	00 00       	nop
 2f8:	08 95       	ret
 2fa:	60 e8       	ldi	r22, 0x80	; 128
 2fc:	f3 cf       	rjmp	.-26     	; 0x2e4 <_ZN3lcd10Lcd_CursorEcc+0x42>

000002fe <_ZN3lcd8writeDecEccj>:
 2fe:	bf 92       	push	r11
 300:	cf 92       	push	r12
 302:	df 92       	push	r13
 304:	ef 92       	push	r14
 306:	ff 92       	push	r15
 308:	0f 93       	push	r16
 30a:	1f 93       	push	r17
 30c:	cf 93       	push	r28
 30e:	df 93       	push	r29
 310:	8c 01       	movw	r16, r24
 312:	79 01       	movw	r14, r18
 314:	0e 94 51 01 	call	0x2a2	; 0x2a2 <_ZN3lcd10Lcd_CursorEcc>
 318:	80 e1       	ldi	r24, 0x10	; 16
 31a:	e8 16       	cp	r14, r24
 31c:	87 e2       	ldi	r24, 0x27	; 39
 31e:	f8 06       	cpc	r15, r24
 320:	60 f1       	brcs	.+88     	; 0x37a <_ZN3lcd8writeDecEccj+0x7c>
 322:	97 01       	movw	r18, r14
 324:	32 95       	swap	r19
 326:	22 95       	swap	r18
 328:	2f 70       	andi	r18, 0x0F	; 15
 32a:	23 27       	eor	r18, r19
 32c:	3f 70       	andi	r19, 0x0F	; 15
 32e:	23 27       	eor	r18, r19
 330:	a7 e4       	ldi	r26, 0x47	; 71
 332:	b3 e0       	ldi	r27, 0x03	; 3
 334:	0e 94 aa 04 	call	0x954	; 0x954 <__umulhisi3>
 338:	ec 01       	movw	r28, r24
 33a:	d6 95       	lsr	r29
 33c:	c7 95       	ror	r28
 33e:	d6 95       	lsr	r29
 340:	c7 95       	ror	r28
 342:	d6 95       	lsr	r29
 344:	c7 95       	ror	r28
 346:	6c 2f       	mov	r22, r28
 348:	60 5d       	subi	r22, 0xD0	; 208
 34a:	40 e1       	ldi	r20, 0x10	; 16
 34c:	c8 01       	movw	r24, r16
 34e:	0e 94 55 00 	call	0xaa	; 0xaa <_ZN3lcd11Lcd_RawSendEcc>
 352:	cc 23       	and	r28, r28
 354:	a1 f0       	breq	.+40     	; 0x37e <_ZN3lcd8writeDecEccj+0x80>
 356:	9c 2f       	mov	r25, r28
 358:	91 50       	subi	r25, 0x01	; 1
 35a:	f1 f7       	brne	.-4      	; 0x358 <_ZN3lcd8writeDecEccj+0x5a>
 35c:	8c 2f       	mov	r24, r28
 35e:	81 50       	subi	r24, 0x01	; 1
 360:	20 ef       	ldi	r18, 0xF0	; 240
 362:	38 ed       	ldi	r19, 0xD8	; 216
 364:	82 9f       	mul	r24, r18
 366:	e0 01       	movw	r28, r0
 368:	83 9f       	mul	r24, r19
 36a:	d0 0d       	add	r29, r0
 36c:	11 24       	eor	r1, r1
 36e:	c7 01       	movw	r24, r14
 370:	80 51       	subi	r24, 0x10	; 16
 372:	97 42       	sbci	r25, 0x27	; 39
 374:	c8 0f       	add	r28, r24
 376:	d9 1f       	adc	r29, r25
 378:	03 c0       	rjmp	.+6      	; 0x380 <_ZN3lcd8writeDecEccj+0x82>
 37a:	e7 01       	movw	r28, r14
 37c:	01 c0       	rjmp	.+2      	; 0x380 <_ZN3lcd8writeDecEccj+0x82>
 37e:	e7 01       	movw	r28, r14
 380:	88 ee       	ldi	r24, 0xE8	; 232
 382:	e8 16       	cp	r14, r24
 384:	83 e0       	ldi	r24, 0x03	; 3
 386:	f8 06       	cpc	r15, r24
 388:	58 f1       	brcs	.+86     	; 0x3e0 <_ZN3lcd8writeDecEccj+0xe2>
 38a:	9e 01       	movw	r18, r28
 38c:	36 95       	lsr	r19
 38e:	27 95       	ror	r18
 390:	36 95       	lsr	r19
 392:	27 95       	ror	r18
 394:	36 95       	lsr	r19
 396:	27 95       	ror	r18
 398:	a5 ec       	ldi	r26, 0xC5	; 197
 39a:	b0 e2       	ldi	r27, 0x20	; 32
 39c:	0e 94 aa 04 	call	0x954	; 0x954 <__umulhisi3>
 3a0:	6c 01       	movw	r12, r24
 3a2:	d6 94       	lsr	r13
 3a4:	c7 94       	ror	r12
 3a6:	d6 94       	lsr	r13
 3a8:	c7 94       	ror	r12
 3aa:	d6 94       	lsr	r13
 3ac:	c7 94       	ror	r12
 3ae:	d6 94       	lsr	r13
 3b0:	c7 94       	ror	r12
 3b2:	60 e3       	ldi	r22, 0x30	; 48
 3b4:	6c 0d       	add	r22, r12
 3b6:	40 e1       	ldi	r20, 0x10	; 16
 3b8:	c8 01       	movw	r24, r16
 3ba:	0e 94 55 00 	call	0xaa	; 0xaa <_ZN3lcd11Lcd_RawSendEcc>
 3be:	cc 20       	and	r12, r12
 3c0:	79 f0       	breq	.+30     	; 0x3e0 <_ZN3lcd8writeDecEccj+0xe2>
 3c2:	9c 2d       	mov	r25, r12
 3c4:	91 50       	subi	r25, 0x01	; 1
 3c6:	f1 f7       	brne	.-4      	; 0x3c4 <_ZN3lcd8writeDecEccj+0xc6>
 3c8:	c8 5e       	subi	r28, 0xE8	; 232
 3ca:	d3 40       	sbci	r29, 0x03	; 3
 3cc:	ca 94       	dec	r12
 3ce:	28 e1       	ldi	r18, 0x18	; 24
 3d0:	3c ef       	ldi	r19, 0xFC	; 252
 3d2:	c2 9e       	mul	r12, r18
 3d4:	c0 01       	movw	r24, r0
 3d6:	c3 9e       	mul	r12, r19
 3d8:	90 0d       	add	r25, r0
 3da:	11 24       	eor	r1, r1
 3dc:	c8 0f       	add	r28, r24
 3de:	d9 1f       	adc	r29, r25
 3e0:	84 e6       	ldi	r24, 0x64	; 100
 3e2:	e8 16       	cp	r14, r24
 3e4:	f1 04       	cpc	r15, r1
 3e6:	f8 f0       	brcs	.+62     	; 0x426 <__LOCK_REGION_LENGTH__+0x26>
 3e8:	9e 01       	movw	r18, r28
 3ea:	36 95       	lsr	r19
 3ec:	27 95       	ror	r18
 3ee:	36 95       	lsr	r19
 3f0:	27 95       	ror	r18
 3f2:	ab e7       	ldi	r26, 0x7B	; 123
 3f4:	b4 e1       	ldi	r27, 0x14	; 20
 3f6:	0e 94 aa 04 	call	0x954	; 0x954 <__umulhisi3>
 3fa:	6c 01       	movw	r12, r24
 3fc:	d6 94       	lsr	r13
 3fe:	c7 94       	ror	r12
 400:	60 e3       	ldi	r22, 0x30	; 48
 402:	6c 0d       	add	r22, r12
 404:	40 e1       	ldi	r20, 0x10	; 16
 406:	c8 01       	movw	r24, r16
 408:	0e 94 55 00 	call	0xaa	; 0xaa <_ZN3lcd11Lcd_RawSendEcc>
 40c:	cc 20       	and	r12, r12
 40e:	59 f0       	breq	.+22     	; 0x426 <__LOCK_REGION_LENGTH__+0x26>
 410:	9c 2d       	mov	r25, r12
 412:	91 50       	subi	r25, 0x01	; 1
 414:	f1 f7       	brne	.-4      	; 0x412 <__LOCK_REGION_LENGTH__+0x12>
 416:	c4 56       	subi	r28, 0x64	; 100
 418:	d1 09       	sbc	r29, r1
 41a:	ca 94       	dec	r12
 41c:	84 e6       	ldi	r24, 0x64	; 100
 41e:	c8 9e       	mul	r12, r24
 420:	c0 19       	sub	r28, r0
 422:	d1 09       	sbc	r29, r1
 424:	11 24       	eor	r1, r1
 426:	8a e0       	ldi	r24, 0x0A	; 10
 428:	e8 16       	cp	r14, r24
 42a:	f1 04       	cpc	r15, r1
 42c:	f0 f0       	brcs	.+60     	; 0x46a <__stack+0xb>
 42e:	9e 01       	movw	r18, r28
 430:	ad ec       	ldi	r26, 0xCD	; 205
 432:	bc ec       	ldi	r27, 0xCC	; 204
 434:	0e 94 aa 04 	call	0x954	; 0x954 <__umulhisi3>
 438:	7c 01       	movw	r14, r24
 43a:	f6 94       	lsr	r15
 43c:	e7 94       	ror	r14
 43e:	f6 94       	lsr	r15
 440:	e7 94       	ror	r14
 442:	f6 94       	lsr	r15
 444:	e7 94       	ror	r14
 446:	60 e3       	ldi	r22, 0x30	; 48
 448:	6e 0d       	add	r22, r14
 44a:	40 e1       	ldi	r20, 0x10	; 16
 44c:	c8 01       	movw	r24, r16
 44e:	0e 94 55 00 	call	0xaa	; 0xaa <_ZN3lcd11Lcd_RawSendEcc>
 452:	ee 20       	and	r14, r14
 454:	51 f0       	breq	.+20     	; 0x46a <__stack+0xb>
 456:	9e 2d       	mov	r25, r14
 458:	91 50       	subi	r25, 0x01	; 1
 45a:	f1 f7       	brne	.-4      	; 0x458 <__LOCK_REGION_LENGTH__+0x58>
 45c:	2a 97       	sbiw	r28, 0x0a	; 10
 45e:	ea 94       	dec	r14
 460:	8a e0       	ldi	r24, 0x0A	; 10
 462:	e8 9e       	mul	r14, r24
 464:	c0 19       	sub	r28, r0
 466:	d1 09       	sbc	r29, r1
 468:	11 24       	eor	r1, r1
 46a:	6c 2f       	mov	r22, r28
 46c:	60 5d       	subi	r22, 0xD0	; 208
 46e:	40 e1       	ldi	r20, 0x10	; 16
 470:	c8 01       	movw	r24, r16
 472:	0e 94 55 00 	call	0xaa	; 0xaa <_ZN3lcd11Lcd_RawSendEcc>
 476:	df 91       	pop	r29
 478:	cf 91       	pop	r28
 47a:	1f 91       	pop	r17
 47c:	0f 91       	pop	r16
 47e:	ff 90       	pop	r15
 480:	ef 90       	pop	r14
 482:	df 90       	pop	r13
 484:	cf 90       	pop	r12
 486:	bf 90       	pop	r11
 488:	08 95       	ret

0000048a <_ZN3lcd15Lcd_PrintStringEPKcc>:
 48a:	ef 92       	push	r14
 48c:	ff 92       	push	r15
 48e:	0f 93       	push	r16
 490:	1f 93       	push	r17
 492:	cf 93       	push	r28
 494:	df 93       	push	r29
 496:	fb 01       	movw	r30, r22
 498:	44 23       	and	r20, r20
 49a:	01 f1       	breq	.+64     	; 0x4dc <_ZN3lcd15Lcd_PrintStringEPKcc+0x52>
 49c:	60 81       	ld	r22, Z
 49e:	66 23       	and	r22, r22
 4a0:	e9 f0       	breq	.+58     	; 0x4dc <_ZN3lcd15Lcd_PrintStringEPKcc+0x52>
 4a2:	dc 01       	movw	r26, r24
 4a4:	11 96       	adiw	r26, 0x01	; 1
 4a6:	2c 91       	ld	r18, X
 4a8:	22 23       	and	r18, r18
 4aa:	c1 f0       	breq	.+48     	; 0x4dc <_ZN3lcd15Lcd_PrintStringEPKcc+0x52>
 4ac:	d4 2f       	mov	r29, r20
 4ae:	8f 01       	movw	r16, r30
 4b0:	7c 01       	movw	r14, r24
 4b2:	0f 5f       	subi	r16, 0xFF	; 255
 4b4:	1f 4f       	sbci	r17, 0xFF	; 255
 4b6:	c0 e0       	ldi	r28, 0x00	; 0
 4b8:	0a c0       	rjmp	.+20     	; 0x4ce <_ZN3lcd15Lcd_PrintStringEPKcc+0x44>
 4ba:	f8 01       	movw	r30, r16
 4bc:	61 91       	ld	r22, Z+
 4be:	8f 01       	movw	r16, r30
 4c0:	66 23       	and	r22, r22
 4c2:	61 f0       	breq	.+24     	; 0x4dc <_ZN3lcd15Lcd_PrintStringEPKcc+0x52>
 4c4:	d7 01       	movw	r26, r14
 4c6:	11 96       	adiw	r26, 0x01	; 1
 4c8:	8c 91       	ld	r24, X
 4ca:	8c 17       	cp	r24, r28
 4cc:	39 f0       	breq	.+14     	; 0x4dc <_ZN3lcd15Lcd_PrintStringEPKcc+0x52>
 4ce:	40 e1       	ldi	r20, 0x10	; 16
 4d0:	c7 01       	movw	r24, r14
 4d2:	0e 94 55 00 	call	0xaa	; 0xaa <_ZN3lcd11Lcd_RawSendEcc>
 4d6:	cf 5f       	subi	r28, 0xFF	; 255
 4d8:	cd 13       	cpse	r28, r29
 4da:	ef cf       	rjmp	.-34     	; 0x4ba <_ZN3lcd15Lcd_PrintStringEPKcc+0x30>
 4dc:	df 91       	pop	r29
 4de:	cf 91       	pop	r28
 4e0:	1f 91       	pop	r17
 4e2:	0f 91       	pop	r16
 4e4:	ff 90       	pop	r15
 4e6:	ef 90       	pop	r14
 4e8:	08 95       	ret

000004ea <_ZN3lcd9writeTextEccPKc>:
 4ea:	ef 92       	push	r14
 4ec:	ff 92       	push	r15
 4ee:	0f 93       	push	r16
 4f0:	1f 93       	push	r17
 4f2:	cf 93       	push	r28
 4f4:	df 93       	push	r29
 4f6:	8c 01       	movw	r16, r24
 4f8:	79 01       	movw	r14, r18
 4fa:	fc 01       	movw	r30, r24
 4fc:	c1 81       	ldd	r28, Z+1	; 0x01
 4fe:	d0 e0       	ldi	r29, 0x00	; 0
 500:	c4 1b       	sub	r28, r20
 502:	d1 09       	sbc	r29, r1
 504:	0e 94 51 01 	call	0x2a2	; 0x2a2 <_ZN3lcd10Lcd_CursorEcc>
 508:	4c 2f       	mov	r20, r28
 50a:	b7 01       	movw	r22, r14
 50c:	c8 01       	movw	r24, r16
 50e:	0e 94 45 02 	call	0x48a	; 0x48a <_ZN3lcd15Lcd_PrintStringEPKcc>
 512:	df 91       	pop	r29
 514:	cf 91       	pop	r28
 516:	1f 91       	pop	r17
 518:	0f 91       	pop	r16
 51a:	ff 90       	pop	r15
 51c:	ef 90       	pop	r14
 51e:	08 95       	ret

00000520 <_Z11usound_initv>:

 uint32_t readDistance(void);

void usound_init(void)
{
	US_DDR |= (1 << US_TRIGER)|(0 << US_ECHO);
 520:	a1 9a       	sbi	0x14, 1	; 20
	US_PIN |= (1<<US_ECHO);
 522:	98 9a       	sbi	0x13, 0	; 19
 524:	08 95       	ret

00000526 <_Z12readDistancev>:
	#else
		//round up by default
		__ticks_dc = (uint32_t)(ceil(fabs(__tmp)));
	#endif

	__builtin_avr_delay_cycles(__ticks_dc);
 526:	85 e0       	ldi	r24, 0x05	; 5
 528:	8a 95       	dec	r24
 52a:	f1 f7       	brne	.-4      	; 0x528 <_Z12readDistancev+0x2>
 52c:	00 00       	nop
{
	uint8_t readStatus=0;
	uint32_t disTime=0;

	_delay_us(2);
	US_PORT |= (1 << US_TRIGER);
 52e:	a9 9a       	sbi	0x15, 1	; 21
 530:	8a e1       	ldi	r24, 0x1A	; 26
 532:	8a 95       	dec	r24
 534:	f1 f7       	brne	.-4      	; 0x532 <_Z12readDistancev+0xc>
 536:	00 c0       	rjmp	.+0      	; 0x538 <_Z12readDistancev+0x12>
	_delay_us(10);
	US_PORT &= ~(1 << US_TRIGER);
 538:	a9 98       	cbi	0x15, 1	; 21
 53a:	0a c0       	rjmp	.+20     	; 0x550 <_Z12readDistancev+0x2a>

	
	while(readStatus == 0)
	{
		while(US_PIN&(1<<US_ECHO))
 53c:	60 e0       	ldi	r22, 0x00	; 0
 53e:	70 e0       	ldi	r23, 0x00	; 0
 540:	cb 01       	movw	r24, r22
		{
			disTime++;
 542:	6f 5f       	subi	r22, 0xFF	; 255
 544:	7f 4f       	sbci	r23, 0xFF	; 255
 546:	8f 4f       	sbci	r24, 0xFF	; 255
 548:	9f 4f       	sbci	r25, 0xFF	; 255
	US_PORT &= ~(1 << US_TRIGER);

	
	while(readStatus == 0)
	{
		while(US_PIN&(1<<US_ECHO))
 54a:	98 99       	sbic	0x13, 0	; 19
 54c:	fa cf       	rjmp	.-12     	; 0x542 <_Z12readDistancev+0x1c>
 54e:	03 c0       	rjmp	.+6      	; 0x556 <_Z12readDistancev+0x30>
 550:	98 99       	sbic	0x13, 0	; 19
 552:	f4 cf       	rjmp	.-24     	; 0x53c <_Z12readDistancev+0x16>
 554:	fd cf       	rjmp	.-6      	; 0x550 <_Z12readDistancev+0x2a>
			disTime++;
			readStatus = 1;
		}
	}	

	return disTime * 0.00862;
 556:	0e 94 af 03 	call	0x75e	; 0x75e <__floatunsisf>
 55a:	27 ee       	ldi	r18, 0xE7	; 231
 55c:	3a e3       	ldi	r19, 0x3A	; 58
 55e:	4d e0       	ldi	r20, 0x0D	; 13
 560:	5c e3       	ldi	r21, 0x3C	; 60
 562:	0e 94 15 04 	call	0x82a	; 0x82a <__mulsf3>
 566:	0e 94 80 03 	call	0x700	; 0x700 <__fixunssfsi>
}
 56a:	08 95       	ret

0000056c <main>:

lcd display(16,2);

int main(void)
{
	DDRD  = 0x40;
 56c:	80 e4       	ldi	r24, 0x40	; 64
 56e:	81 bb       	out	0x11, r24	; 17
	PORTD = 0x00;
 570:	12 ba       	out	0x12, r1	; 18
	#else
		//round up by default
		__ticks_dc = (uint32_t)(ceil(fabs(__tmp)));
	#endif

	__builtin_avr_delay_cycles(__ticks_dc);
 572:	2f ef       	ldi	r18, 0xFF	; 255
 574:	80 e7       	ldi	r24, 0x70	; 112
 576:	92 e0       	ldi	r25, 0x02	; 2
 578:	21 50       	subi	r18, 0x01	; 1
 57a:	80 40       	sbci	r24, 0x00	; 0
 57c:	90 40       	sbci	r25, 0x00	; 0
 57e:	e1 f7       	brne	.-8      	; 0x578 <main+0xc>
 580:	00 c0       	rjmp	.+0      	; 0x582 <main+0x16>
 582:	00 00       	nop
	
	_delay_ms(100);
	display.init();
 584:	8e ea       	ldi	r24, 0xAE	; 174
 586:	90 e0       	ldi	r25, 0x00	; 0
 588:	0e 94 ad 00 	call	0x15a	; 0x15a <_ZN3lcd4initEv>
	usound_init();
 58c:	0e 94 90 02 	call	0x520	; 0x520 <_Z11usound_initv>
	
	display.clear();
 590:	8e ea       	ldi	r24, 0xAE	; 174
 592:	90 e0       	ldi	r25, 0x00	; 0
 594:	0e 94 36 01 	call	0x26c	; 0x26c <_ZN3lcd5clearEv>
 598:	2f ef       	ldi	r18, 0xFF	; 255
 59a:	84 e3       	ldi	r24, 0x34	; 52
 59c:	9c e0       	ldi	r25, 0x0C	; 12
 59e:	21 50       	subi	r18, 0x01	; 1
 5a0:	80 40       	sbci	r24, 0x00	; 0
 5a2:	90 40       	sbci	r25, 0x00	; 0
 5a4:	e1 f7       	brne	.-8      	; 0x59e <main+0x32>
 5a6:	00 c0       	rjmp	.+0      	; 0x5a8 <main+0x3c>
 5a8:	00 00       	nop
	_delay_ms(500);
	
	display.writeText(0,2,"INITIALIZING");
 5aa:	21 e7       	ldi	r18, 0x71	; 113
 5ac:	30 e0       	ldi	r19, 0x00	; 0
 5ae:	42 e0       	ldi	r20, 0x02	; 2
 5b0:	60 e0       	ldi	r22, 0x00	; 0
 5b2:	8e ea       	ldi	r24, 0xAE	; 174
 5b4:	90 e0       	ldi	r25, 0x00	; 0
 5b6:	0e 94 75 02 	call	0x4ea	; 0x4ea <_ZN3lcd9writeTextEccPKc>
	display.writeText(1,0,"SONAR SYSTEM...");
 5ba:	2e e7       	ldi	r18, 0x7E	; 126
 5bc:	30 e0       	ldi	r19, 0x00	; 0
 5be:	40 e0       	ldi	r20, 0x00	; 0
 5c0:	61 e0       	ldi	r22, 0x01	; 1
 5c2:	8e ea       	ldi	r24, 0xAE	; 174
 5c4:	90 e0       	ldi	r25, 0x00	; 0
 5c6:	0e 94 75 02 	call	0x4ea	; 0x4ea <_ZN3lcd9writeTextEccPKc>
 5ca:	2f ef       	ldi	r18, 0xFF	; 255
 5cc:	83 ed       	ldi	r24, 0xD3	; 211
 5ce:	90 e3       	ldi	r25, 0x30	; 48
 5d0:	21 50       	subi	r18, 0x01	; 1
 5d2:	80 40       	sbci	r24, 0x00	; 0
 5d4:	90 40       	sbci	r25, 0x00	; 0
 5d6:	e1 f7       	brne	.-8      	; 0x5d0 <main+0x64>
 5d8:	00 c0       	rjmp	.+0      	; 0x5da <main+0x6e>
 5da:	00 00       	nop
	_delay_ms(2000);
	display.clear();
 5dc:	8e ea       	ldi	r24, 0xAE	; 174
 5de:	90 e0       	ldi	r25, 0x00	; 0
 5e0:	0e 94 36 01 	call	0x26c	; 0x26c <_ZN3lcd5clearEv>
 5e4:	2f ef       	ldi	r18, 0xFF	; 255
 5e6:	89 e6       	ldi	r24, 0x69	; 105
 5e8:	98 e1       	ldi	r25, 0x18	; 24
 5ea:	21 50       	subi	r18, 0x01	; 1
 5ec:	80 40       	sbci	r24, 0x00	; 0
 5ee:	90 40       	sbci	r25, 0x00	; 0
 5f0:	e1 f7       	brne	.-8      	; 0x5ea <main+0x7e>
 5f2:	00 c0       	rjmp	.+0      	; 0x5f4 <main+0x88>
 5f4:	00 00       	nop
		if (i<10)
		{
			display.writeText(1,10,"00");
			display.writeDec(1,12,i);
			display.writeText(1,13,"cm");
			PORTD ^= 0x40;
 5f6:	c0 e4       	ldi	r28, 0x40	; 64
	display.clear();
	_delay_ms(1000);
    /* Replace with your application code */
    while (1) 
    {
		uint32_t i = readDistance();
 5f8:	0e 94 93 02 	call	0x526	; 0x526 <_Z12readDistancev>
 5fc:	6b 01       	movw	r12, r22
 5fe:	7c 01       	movw	r14, r24
		
		display.writeText(0,0,"IN PROGRESS...");
 600:	2e e8       	ldi	r18, 0x8E	; 142
 602:	30 e0       	ldi	r19, 0x00	; 0
 604:	40 e0       	ldi	r20, 0x00	; 0
 606:	60 e0       	ldi	r22, 0x00	; 0
 608:	8e ea       	ldi	r24, 0xAE	; 174
 60a:	90 e0       	ldi	r25, 0x00	; 0
 60c:	0e 94 75 02 	call	0x4ea	; 0x4ea <_ZN3lcd9writeTextEccPKc>
		display.writeText(1,0,"Distance:");
 610:	2d e9       	ldi	r18, 0x9D	; 157
 612:	30 e0       	ldi	r19, 0x00	; 0
 614:	40 e0       	ldi	r20, 0x00	; 0
 616:	61 e0       	ldi	r22, 0x01	; 1
 618:	8e ea       	ldi	r24, 0xAE	; 174
 61a:	90 e0       	ldi	r25, 0x00	; 0
 61c:	0e 94 75 02 	call	0x4ea	; 0x4ea <_ZN3lcd9writeTextEccPKc>
		display.writeDec(1,10,i);
 620:	96 01       	movw	r18, r12
 622:	4a e0       	ldi	r20, 0x0A	; 10
 624:	61 e0       	ldi	r22, 0x01	; 1
 626:	8e ea       	ldi	r24, 0xAE	; 174
 628:	90 e0       	ldi	r25, 0x00	; 0
 62a:	0e 94 7f 01 	call	0x2fe	; 0x2fe <_ZN3lcd8writeDecEccj>
		display.writeText(1,13,"cm");
 62e:	27 ea       	ldi	r18, 0xA7	; 167
 630:	30 e0       	ldi	r19, 0x00	; 0
 632:	4d e0       	ldi	r20, 0x0D	; 13
 634:	61 e0       	ldi	r22, 0x01	; 1
 636:	8e ea       	ldi	r24, 0xAE	; 174
 638:	90 e0       	ldi	r25, 0x00	; 0
 63a:	0e 94 75 02 	call	0x4ea	; 0x4ea <_ZN3lcd9writeTextEccPKc>
		if (i<10)
 63e:	2a e0       	ldi	r18, 0x0A	; 10
 640:	c2 16       	cp	r12, r18
 642:	d1 04       	cpc	r13, r1
 644:	e1 04       	cpc	r14, r1
 646:	f1 04       	cpc	r15, r1
 648:	20 f5       	brcc	.+72     	; 0x692 <main+0x126>
		{
			display.writeText(1,10,"00");
 64a:	2a ea       	ldi	r18, 0xAA	; 170
 64c:	30 e0       	ldi	r19, 0x00	; 0
 64e:	4a e0       	ldi	r20, 0x0A	; 10
 650:	61 e0       	ldi	r22, 0x01	; 1
 652:	8e ea       	ldi	r24, 0xAE	; 174
 654:	90 e0       	ldi	r25, 0x00	; 0
 656:	0e 94 75 02 	call	0x4ea	; 0x4ea <_ZN3lcd9writeTextEccPKc>
			display.writeDec(1,12,i);
 65a:	96 01       	movw	r18, r12
 65c:	4c e0       	ldi	r20, 0x0C	; 12
 65e:	61 e0       	ldi	r22, 0x01	; 1
 660:	8e ea       	ldi	r24, 0xAE	; 174
 662:	90 e0       	ldi	r25, 0x00	; 0
 664:	0e 94 7f 01 	call	0x2fe	; 0x2fe <_ZN3lcd8writeDecEccj>
			display.writeText(1,13,"cm");
 668:	27 ea       	ldi	r18, 0xA7	; 167
 66a:	30 e0       	ldi	r19, 0x00	; 0
 66c:	4d e0       	ldi	r20, 0x0D	; 13
 66e:	61 e0       	ldi	r22, 0x01	; 1
 670:	8e ea       	ldi	r24, 0xAE	; 174
 672:	90 e0       	ldi	r25, 0x00	; 0
 674:	0e 94 75 02 	call	0x4ea	; 0x4ea <_ZN3lcd9writeTextEccPKc>
			PORTD ^= 0x40;
 678:	82 b3       	in	r24, 0x12	; 18
 67a:	8c 27       	eor	r24, r28
 67c:	82 bb       	out	0x12, r24	; 18
 67e:	8f ef       	ldi	r24, 0xFF	; 255
 680:	94 e3       	ldi	r25, 0x34	; 52
 682:	2c e0       	ldi	r18, 0x0C	; 12
 684:	81 50       	subi	r24, 0x01	; 1
 686:	90 40       	sbci	r25, 0x00	; 0
 688:	20 40       	sbci	r18, 0x00	; 0
 68a:	e1 f7       	brne	.-8      	; 0x684 <main+0x118>
 68c:	00 c0       	rjmp	.+0      	; 0x68e <main+0x122>
 68e:	00 00       	nop
 690:	26 c0       	rjmp	.+76     	; 0x6de <main+0x172>
			_delay_ms(500);
		}
		else if (i<100)
 692:	84 e6       	ldi	r24, 0x64	; 100
 694:	c8 16       	cp	r12, r24
 696:	d1 04       	cpc	r13, r1
 698:	e1 04       	cpc	r14, r1
 69a:	f1 04       	cpc	r15, r1
 69c:	00 f5       	brcc	.+64     	; 0x6de <main+0x172>
		{
			display.writeText(1,10,"0");
 69e:	2b ea       	ldi	r18, 0xAB	; 171
 6a0:	30 e0       	ldi	r19, 0x00	; 0
 6a2:	4a e0       	ldi	r20, 0x0A	; 10
 6a4:	61 e0       	ldi	r22, 0x01	; 1
 6a6:	8e ea       	ldi	r24, 0xAE	; 174
 6a8:	90 e0       	ldi	r25, 0x00	; 0
 6aa:	0e 94 75 02 	call	0x4ea	; 0x4ea <_ZN3lcd9writeTextEccPKc>
			display.writeDec(1,11,i);
 6ae:	96 01       	movw	r18, r12
 6b0:	4b e0       	ldi	r20, 0x0B	; 11
 6b2:	61 e0       	ldi	r22, 0x01	; 1
 6b4:	8e ea       	ldi	r24, 0xAE	; 174
 6b6:	90 e0       	ldi	r25, 0x00	; 0
 6b8:	0e 94 7f 01 	call	0x2fe	; 0x2fe <_ZN3lcd8writeDecEccj>
			display.writeText(1,13,"cm");
 6bc:	27 ea       	ldi	r18, 0xA7	; 167
 6be:	30 e0       	ldi	r19, 0x00	; 0
 6c0:	4d e0       	ldi	r20, 0x0D	; 13
 6c2:	61 e0       	ldi	r22, 0x01	; 1
 6c4:	8e ea       	ldi	r24, 0xAE	; 174
 6c6:	90 e0       	ldi	r25, 0x00	; 0
 6c8:	0e 94 75 02 	call	0x4ea	; 0x4ea <_ZN3lcd9writeTextEccPKc>
 6cc:	9f ef       	ldi	r25, 0xFF	; 255
 6ce:	24 e3       	ldi	r18, 0x34	; 52
 6d0:	8c e0       	ldi	r24, 0x0C	; 12
 6d2:	91 50       	subi	r25, 0x01	; 1
 6d4:	20 40       	sbci	r18, 0x00	; 0
 6d6:	80 40       	sbci	r24, 0x00	; 0
 6d8:	e1 f7       	brne	.-8      	; 0x6d2 <main+0x166>
 6da:	00 c0       	rjmp	.+0      	; 0x6dc <main+0x170>
 6dc:	00 00       	nop
 6de:	9f ef       	ldi	r25, 0xFF	; 255
 6e0:	24 e3       	ldi	r18, 0x34	; 52
 6e2:	8c e0       	ldi	r24, 0x0C	; 12
 6e4:	91 50       	subi	r25, 0x01	; 1
 6e6:	20 40       	sbci	r18, 0x00	; 0
 6e8:	80 40       	sbci	r24, 0x00	; 0
 6ea:	e1 f7       	brne	.-8      	; 0x6e4 <main+0x178>
 6ec:	00 c0       	rjmp	.+0      	; 0x6ee <main+0x182>
 6ee:	00 00       	nop
 6f0:	83 cf       	rjmp	.-250    	; 0x5f8 <main+0x8c>

000006f2 <_GLOBAL__sub_I__Z2Hij>:
				uint8_t LCD_COLCNT;
 };


lcd::lcd(char columnNum, char rowNum )
:LCD_ROWCNT (rowNum), LCD_COLCNT(columnNum)
 6f2:	ee ea       	ldi	r30, 0xAE	; 174
 6f4:	f0 e0       	ldi	r31, 0x00	; 0
 6f6:	82 e0       	ldi	r24, 0x02	; 2
 6f8:	80 83       	st	Z, r24
 6fa:	80 e1       	ldi	r24, 0x10	; 16
 6fc:	81 83       	std	Z+1, r24	; 0x01
 6fe:	08 95       	ret

00000700 <__fixunssfsi>:
 700:	0e 94 f4 03 	call	0x7e8	; 0x7e8 <__fp_splitA>
 704:	88 f0       	brcs	.+34     	; 0x728 <__fixunssfsi+0x28>
 706:	9f 57       	subi	r25, 0x7F	; 127
 708:	98 f0       	brcs	.+38     	; 0x730 <__fixunssfsi+0x30>
 70a:	b9 2f       	mov	r27, r25
 70c:	99 27       	eor	r25, r25
 70e:	b7 51       	subi	r27, 0x17	; 23
 710:	b0 f0       	brcs	.+44     	; 0x73e <__fixunssfsi+0x3e>
 712:	e1 f0       	breq	.+56     	; 0x74c <__fixunssfsi+0x4c>
 714:	66 0f       	add	r22, r22
 716:	77 1f       	adc	r23, r23
 718:	88 1f       	adc	r24, r24
 71a:	99 1f       	adc	r25, r25
 71c:	1a f0       	brmi	.+6      	; 0x724 <__fixunssfsi+0x24>
 71e:	ba 95       	dec	r27
 720:	c9 f7       	brne	.-14     	; 0x714 <__fixunssfsi+0x14>
 722:	14 c0       	rjmp	.+40     	; 0x74c <__fixunssfsi+0x4c>
 724:	b1 30       	cpi	r27, 0x01	; 1
 726:	91 f0       	breq	.+36     	; 0x74c <__fixunssfsi+0x4c>
 728:	0e 94 0e 04 	call	0x81c	; 0x81c <__fp_zero>
 72c:	b1 e0       	ldi	r27, 0x01	; 1
 72e:	08 95       	ret
 730:	0c 94 0e 04 	jmp	0x81c	; 0x81c <__fp_zero>
 734:	67 2f       	mov	r22, r23
 736:	78 2f       	mov	r23, r24
 738:	88 27       	eor	r24, r24
 73a:	b8 5f       	subi	r27, 0xF8	; 248
 73c:	39 f0       	breq	.+14     	; 0x74c <__fixunssfsi+0x4c>
 73e:	b9 3f       	cpi	r27, 0xF9	; 249
 740:	cc f3       	brlt	.-14     	; 0x734 <__fixunssfsi+0x34>
 742:	86 95       	lsr	r24
 744:	77 95       	ror	r23
 746:	67 95       	ror	r22
 748:	b3 95       	inc	r27
 74a:	d9 f7       	brne	.-10     	; 0x742 <__fixunssfsi+0x42>
 74c:	3e f4       	brtc	.+14     	; 0x75c <__fixunssfsi+0x5c>
 74e:	90 95       	com	r25
 750:	80 95       	com	r24
 752:	70 95       	com	r23
 754:	61 95       	neg	r22
 756:	7f 4f       	sbci	r23, 0xFF	; 255
 758:	8f 4f       	sbci	r24, 0xFF	; 255
 75a:	9f 4f       	sbci	r25, 0xFF	; 255
 75c:	08 95       	ret

0000075e <__floatunsisf>:
 75e:	e8 94       	clt
 760:	09 c0       	rjmp	.+18     	; 0x774 <__floatsisf+0x12>

00000762 <__floatsisf>:
 762:	97 fb       	bst	r25, 7
 764:	3e f4       	brtc	.+14     	; 0x774 <__floatsisf+0x12>
 766:	90 95       	com	r25
 768:	80 95       	com	r24
 76a:	70 95       	com	r23
 76c:	61 95       	neg	r22
 76e:	7f 4f       	sbci	r23, 0xFF	; 255
 770:	8f 4f       	sbci	r24, 0xFF	; 255
 772:	9f 4f       	sbci	r25, 0xFF	; 255
 774:	99 23       	and	r25, r25
 776:	a9 f0       	breq	.+42     	; 0x7a2 <__floatsisf+0x40>
 778:	f9 2f       	mov	r31, r25
 77a:	96 e9       	ldi	r25, 0x96	; 150
 77c:	bb 27       	eor	r27, r27
 77e:	93 95       	inc	r25
 780:	f6 95       	lsr	r31
 782:	87 95       	ror	r24
 784:	77 95       	ror	r23
 786:	67 95       	ror	r22
 788:	b7 95       	ror	r27
 78a:	f1 11       	cpse	r31, r1
 78c:	f8 cf       	rjmp	.-16     	; 0x77e <__floatsisf+0x1c>
 78e:	fa f4       	brpl	.+62     	; 0x7ce <__floatsisf+0x6c>
 790:	bb 0f       	add	r27, r27
 792:	11 f4       	brne	.+4      	; 0x798 <__floatsisf+0x36>
 794:	60 ff       	sbrs	r22, 0
 796:	1b c0       	rjmp	.+54     	; 0x7ce <__floatsisf+0x6c>
 798:	6f 5f       	subi	r22, 0xFF	; 255
 79a:	7f 4f       	sbci	r23, 0xFF	; 255
 79c:	8f 4f       	sbci	r24, 0xFF	; 255
 79e:	9f 4f       	sbci	r25, 0xFF	; 255
 7a0:	16 c0       	rjmp	.+44     	; 0x7ce <__floatsisf+0x6c>
 7a2:	88 23       	and	r24, r24
 7a4:	11 f0       	breq	.+4      	; 0x7aa <__floatsisf+0x48>
 7a6:	96 e9       	ldi	r25, 0x96	; 150
 7a8:	11 c0       	rjmp	.+34     	; 0x7cc <__floatsisf+0x6a>
 7aa:	77 23       	and	r23, r23
 7ac:	21 f0       	breq	.+8      	; 0x7b6 <__floatsisf+0x54>
 7ae:	9e e8       	ldi	r25, 0x8E	; 142
 7b0:	87 2f       	mov	r24, r23
 7b2:	76 2f       	mov	r23, r22
 7b4:	05 c0       	rjmp	.+10     	; 0x7c0 <__floatsisf+0x5e>
 7b6:	66 23       	and	r22, r22
 7b8:	71 f0       	breq	.+28     	; 0x7d6 <__floatsisf+0x74>
 7ba:	96 e8       	ldi	r25, 0x86	; 134
 7bc:	86 2f       	mov	r24, r22
 7be:	70 e0       	ldi	r23, 0x00	; 0
 7c0:	60 e0       	ldi	r22, 0x00	; 0
 7c2:	2a f0       	brmi	.+10     	; 0x7ce <__floatsisf+0x6c>
 7c4:	9a 95       	dec	r25
 7c6:	66 0f       	add	r22, r22
 7c8:	77 1f       	adc	r23, r23
 7ca:	88 1f       	adc	r24, r24
 7cc:	da f7       	brpl	.-10     	; 0x7c4 <__floatsisf+0x62>
 7ce:	88 0f       	add	r24, r24
 7d0:	96 95       	lsr	r25
 7d2:	87 95       	ror	r24
 7d4:	97 f9       	bld	r25, 7
 7d6:	08 95       	ret

000007d8 <__fp_split3>:
 7d8:	57 fd       	sbrc	r21, 7
 7da:	90 58       	subi	r25, 0x80	; 128
 7dc:	44 0f       	add	r20, r20
 7de:	55 1f       	adc	r21, r21
 7e0:	59 f0       	breq	.+22     	; 0x7f8 <__fp_splitA+0x10>
 7e2:	5f 3f       	cpi	r21, 0xFF	; 255
 7e4:	71 f0       	breq	.+28     	; 0x802 <__fp_splitA+0x1a>
 7e6:	47 95       	ror	r20

000007e8 <__fp_splitA>:
 7e8:	88 0f       	add	r24, r24
 7ea:	97 fb       	bst	r25, 7
 7ec:	99 1f       	adc	r25, r25
 7ee:	61 f0       	breq	.+24     	; 0x808 <__fp_splitA+0x20>
 7f0:	9f 3f       	cpi	r25, 0xFF	; 255
 7f2:	79 f0       	breq	.+30     	; 0x812 <__fp_splitA+0x2a>
 7f4:	87 95       	ror	r24
 7f6:	08 95       	ret
 7f8:	12 16       	cp	r1, r18
 7fa:	13 06       	cpc	r1, r19
 7fc:	14 06       	cpc	r1, r20
 7fe:	55 1f       	adc	r21, r21
 800:	f2 cf       	rjmp	.-28     	; 0x7e6 <__fp_split3+0xe>
 802:	46 95       	lsr	r20
 804:	f1 df       	rcall	.-30     	; 0x7e8 <__fp_splitA>
 806:	08 c0       	rjmp	.+16     	; 0x818 <__fp_splitA+0x30>
 808:	16 16       	cp	r1, r22
 80a:	17 06       	cpc	r1, r23
 80c:	18 06       	cpc	r1, r24
 80e:	99 1f       	adc	r25, r25
 810:	f1 cf       	rjmp	.-30     	; 0x7f4 <__fp_splitA+0xc>
 812:	86 95       	lsr	r24
 814:	71 05       	cpc	r23, r1
 816:	61 05       	cpc	r22, r1
 818:	08 94       	sec
 81a:	08 95       	ret

0000081c <__fp_zero>:
 81c:	e8 94       	clt

0000081e <__fp_szero>:
 81e:	bb 27       	eor	r27, r27
 820:	66 27       	eor	r22, r22
 822:	77 27       	eor	r23, r23
 824:	cb 01       	movw	r24, r22
 826:	97 f9       	bld	r25, 7
 828:	08 95       	ret

0000082a <__mulsf3>:
 82a:	0e 94 28 04 	call	0x850	; 0x850 <__mulsf3x>
 82e:	0c 94 99 04 	jmp	0x932	; 0x932 <__fp_round>
 832:	0e 94 8b 04 	call	0x916	; 0x916 <__fp_pscA>
 836:	38 f0       	brcs	.+14     	; 0x846 <__mulsf3+0x1c>
 838:	0e 94 92 04 	call	0x924	; 0x924 <__fp_pscB>
 83c:	20 f0       	brcs	.+8      	; 0x846 <__mulsf3+0x1c>
 83e:	95 23       	and	r25, r21
 840:	11 f0       	breq	.+4      	; 0x846 <__mulsf3+0x1c>
 842:	0c 94 82 04 	jmp	0x904	; 0x904 <__fp_inf>
 846:	0c 94 88 04 	jmp	0x910	; 0x910 <__fp_nan>
 84a:	11 24       	eor	r1, r1
 84c:	0c 94 0f 04 	jmp	0x81e	; 0x81e <__fp_szero>

00000850 <__mulsf3x>:
 850:	0e 94 ec 03 	call	0x7d8	; 0x7d8 <__fp_split3>
 854:	70 f3       	brcs	.-36     	; 0x832 <__mulsf3+0x8>

00000856 <__mulsf3_pse>:
 856:	95 9f       	mul	r25, r21
 858:	c1 f3       	breq	.-16     	; 0x84a <__mulsf3+0x20>
 85a:	95 0f       	add	r25, r21
 85c:	50 e0       	ldi	r21, 0x00	; 0
 85e:	55 1f       	adc	r21, r21
 860:	62 9f       	mul	r22, r18
 862:	f0 01       	movw	r30, r0
 864:	72 9f       	mul	r23, r18
 866:	bb 27       	eor	r27, r27
 868:	f0 0d       	add	r31, r0
 86a:	b1 1d       	adc	r27, r1
 86c:	63 9f       	mul	r22, r19
 86e:	aa 27       	eor	r26, r26
 870:	f0 0d       	add	r31, r0
 872:	b1 1d       	adc	r27, r1
 874:	aa 1f       	adc	r26, r26
 876:	64 9f       	mul	r22, r20
 878:	66 27       	eor	r22, r22
 87a:	b0 0d       	add	r27, r0
 87c:	a1 1d       	adc	r26, r1
 87e:	66 1f       	adc	r22, r22
 880:	82 9f       	mul	r24, r18
 882:	22 27       	eor	r18, r18
 884:	b0 0d       	add	r27, r0
 886:	a1 1d       	adc	r26, r1
 888:	62 1f       	adc	r22, r18
 88a:	73 9f       	mul	r23, r19
 88c:	b0 0d       	add	r27, r0
 88e:	a1 1d       	adc	r26, r1
 890:	62 1f       	adc	r22, r18
 892:	83 9f       	mul	r24, r19
 894:	a0 0d       	add	r26, r0
 896:	61 1d       	adc	r22, r1
 898:	22 1f       	adc	r18, r18
 89a:	74 9f       	mul	r23, r20
 89c:	33 27       	eor	r19, r19
 89e:	a0 0d       	add	r26, r0
 8a0:	61 1d       	adc	r22, r1
 8a2:	23 1f       	adc	r18, r19
 8a4:	84 9f       	mul	r24, r20
 8a6:	60 0d       	add	r22, r0
 8a8:	21 1d       	adc	r18, r1
 8aa:	82 2f       	mov	r24, r18
 8ac:	76 2f       	mov	r23, r22
 8ae:	6a 2f       	mov	r22, r26
 8b0:	11 24       	eor	r1, r1
 8b2:	9f 57       	subi	r25, 0x7F	; 127
 8b4:	50 40       	sbci	r21, 0x00	; 0
 8b6:	9a f0       	brmi	.+38     	; 0x8de <__mulsf3_pse+0x88>
 8b8:	f1 f0       	breq	.+60     	; 0x8f6 <__mulsf3_pse+0xa0>
 8ba:	88 23       	and	r24, r24
 8bc:	4a f0       	brmi	.+18     	; 0x8d0 <__mulsf3_pse+0x7a>
 8be:	ee 0f       	add	r30, r30
 8c0:	ff 1f       	adc	r31, r31
 8c2:	bb 1f       	adc	r27, r27
 8c4:	66 1f       	adc	r22, r22
 8c6:	77 1f       	adc	r23, r23
 8c8:	88 1f       	adc	r24, r24
 8ca:	91 50       	subi	r25, 0x01	; 1
 8cc:	50 40       	sbci	r21, 0x00	; 0
 8ce:	a9 f7       	brne	.-22     	; 0x8ba <__mulsf3_pse+0x64>
 8d0:	9e 3f       	cpi	r25, 0xFE	; 254
 8d2:	51 05       	cpc	r21, r1
 8d4:	80 f0       	brcs	.+32     	; 0x8f6 <__mulsf3_pse+0xa0>
 8d6:	0c 94 82 04 	jmp	0x904	; 0x904 <__fp_inf>
 8da:	0c 94 0f 04 	jmp	0x81e	; 0x81e <__fp_szero>
 8de:	5f 3f       	cpi	r21, 0xFF	; 255
 8e0:	e4 f3       	brlt	.-8      	; 0x8da <__mulsf3_pse+0x84>
 8e2:	98 3e       	cpi	r25, 0xE8	; 232
 8e4:	d4 f3       	brlt	.-12     	; 0x8da <__mulsf3_pse+0x84>
 8e6:	86 95       	lsr	r24
 8e8:	77 95       	ror	r23
 8ea:	67 95       	ror	r22
 8ec:	b7 95       	ror	r27
 8ee:	f7 95       	ror	r31
 8f0:	e7 95       	ror	r30
 8f2:	9f 5f       	subi	r25, 0xFF	; 255
 8f4:	c1 f7       	brne	.-16     	; 0x8e6 <__mulsf3_pse+0x90>
 8f6:	fe 2b       	or	r31, r30
 8f8:	88 0f       	add	r24, r24
 8fa:	91 1d       	adc	r25, r1
 8fc:	96 95       	lsr	r25
 8fe:	87 95       	ror	r24
 900:	97 f9       	bld	r25, 7
 902:	08 95       	ret

00000904 <__fp_inf>:
 904:	97 f9       	bld	r25, 7
 906:	9f 67       	ori	r25, 0x7F	; 127
 908:	80 e8       	ldi	r24, 0x80	; 128
 90a:	70 e0       	ldi	r23, 0x00	; 0
 90c:	60 e0       	ldi	r22, 0x00	; 0
 90e:	08 95       	ret

00000910 <__fp_nan>:
 910:	9f ef       	ldi	r25, 0xFF	; 255
 912:	80 ec       	ldi	r24, 0xC0	; 192
 914:	08 95       	ret

00000916 <__fp_pscA>:
 916:	00 24       	eor	r0, r0
 918:	0a 94       	dec	r0
 91a:	16 16       	cp	r1, r22
 91c:	17 06       	cpc	r1, r23
 91e:	18 06       	cpc	r1, r24
 920:	09 06       	cpc	r0, r25
 922:	08 95       	ret

00000924 <__fp_pscB>:
 924:	00 24       	eor	r0, r0
 926:	0a 94       	dec	r0
 928:	12 16       	cp	r1, r18
 92a:	13 06       	cpc	r1, r19
 92c:	14 06       	cpc	r1, r20
 92e:	05 06       	cpc	r0, r21
 930:	08 95       	ret

00000932 <__fp_round>:
 932:	09 2e       	mov	r0, r25
 934:	03 94       	inc	r0
 936:	00 0c       	add	r0, r0
 938:	11 f4       	brne	.+4      	; 0x93e <__fp_round+0xc>
 93a:	88 23       	and	r24, r24
 93c:	52 f0       	brmi	.+20     	; 0x952 <__fp_round+0x20>
 93e:	bb 0f       	add	r27, r27
 940:	40 f4       	brcc	.+16     	; 0x952 <__fp_round+0x20>
 942:	bf 2b       	or	r27, r31
 944:	11 f4       	brne	.+4      	; 0x94a <__fp_round+0x18>
 946:	60 ff       	sbrs	r22, 0
 948:	04 c0       	rjmp	.+8      	; 0x952 <__fp_round+0x20>
 94a:	6f 5f       	subi	r22, 0xFF	; 255
 94c:	7f 4f       	sbci	r23, 0xFF	; 255
 94e:	8f 4f       	sbci	r24, 0xFF	; 255
 950:	9f 4f       	sbci	r25, 0xFF	; 255
 952:	08 95       	ret

00000954 <__umulhisi3>:
 954:	a2 9f       	mul	r26, r18
 956:	b0 01       	movw	r22, r0
 958:	b3 9f       	mul	r27, r19
 95a:	c0 01       	movw	r24, r0
 95c:	a3 9f       	mul	r26, r19
 95e:	70 0d       	add	r23, r0
 960:	81 1d       	adc	r24, r1
 962:	11 24       	eor	r1, r1
 964:	91 1d       	adc	r25, r1
 966:	b2 9f       	mul	r27, r18
 968:	70 0d       	add	r23, r0
 96a:	81 1d       	adc	r24, r1
 96c:	11 24       	eor	r1, r1
 96e:	91 1d       	adc	r25, r1
 970:	08 95       	ret

00000972 <__tablejump2__>:
 972:	ee 0f       	add	r30, r30
 974:	ff 1f       	adc	r31, r31
 976:	05 90       	lpm	r0, Z+
 978:	f4 91       	lpm	r31, Z
 97a:	e0 2d       	mov	r30, r0
 97c:	09 94       	ijmp

0000097e <_exit>:
 97e:	f8 94       	cli

00000980 <__stop_program>:
 980:	ff cf       	rjmp	.-2      	; 0x980 <__stop_program>
